target datalayout = "e-m:e-p270:32:32-p271:32:32-p272:64:64-i64:64-i128:128-f80:128-n8:16:32:64-S128"
target triple = "x86_64-pc-linux-gnu"

%struct.preference = type { ptr, ptr, ptr, i32, i32, i32, %union.anon, %union.anon.0, %union.anon.1, %union.anon.2, %struct.pref_custom_cbs, ptr, ptr }
%union.anon = type { ptr }
%union.anon.0 = type { ptr }
%union.anon.1 = type { ptr }
%union.anon.2 = type { %struct.anon }
%struct.anon = type { ptr, i8 }
%struct.pref_custom_cbs = type { ptr, ptr, ptr, ptr, ptr, ptr, ptr }
%struct.pref_module = type { ptr, ptr, ptr, ptr, ptr, ptr, ptr, ptr, i32, i32, i8, i8, i32 }
%struct.enum_val_t = type { ptr, ptr, i32 }

@.str = private unnamed_addr constant [5 x i8] c"Epan\00", align 1
@.str.1 = private unnamed_addr constant [13 x i8] c"epan/prefs.c\00", align 1
@g_ascii_table = external constant ptr, align 8
@__func__.prefs_register_enum_preference = private unnamed_addr constant [31 x i8] c"prefs_register_enum_preference\00", align 1
@.str.9 = private unnamed_addr constant [68 x i8] c"Preference \22%s.%s\22 enum value name \22%s\22 contains invalid characters\00", align 1

; Function Attrs: null_pointer_is_valid sspstrong uwtable
define void @prefs_register_enum_preference(ptr noundef %0, ptr noundef %1, ptr noundef %2, ptr noundef %3, ptr noundef %4, ptr noundef %5, i1 noundef zeroext %6) #1 {
  %8 = alloca ptr, align 8
  %9 = alloca ptr, align 8
  %10 = alloca ptr, align 8
  %11 = alloca ptr, align 8
  %12 = alloca ptr, align 8
  %13 = alloca ptr, align 8
  %14 = alloca i8, align 1
  %15 = alloca ptr, align 8
  %16 = alloca i64, align 8
  %17 = alloca i32, align 4
  %18 = alloca ptr, align 8
  store ptr %0, ptr %8, align 8
  store ptr %1, ptr %9, align 8
  store ptr %2, ptr %10, align 8
  store ptr %3, ptr %11, align 8
  store ptr %4, ptr %12, align 8
  store ptr %5, ptr %13, align 8
  %19 = zext i1 %6 to i8
  store i8 %19, ptr %14, align 1
  call void @llvm.lifetime.start.p0(i64 8, ptr %15) #17
  call void @llvm.lifetime.start.p0(i64 8, ptr %16) #17
  store i64 0, ptr %16, align 8
  br label %20

20:                                               ; preds = %80, %7
  %21 = load ptr, ptr %13, align 8
  %22 = load i64, ptr %16, align 8
  %23 = getelementptr %struct.enum_val_t, ptr %21, i64 %22
  %24 = getelementptr inbounds nuw %struct.enum_val_t, ptr %23, i32 0, i32 0
  %25 = load ptr, ptr %24, align 8
  %26 = icmp ne ptr %25, null
  br i1 %26, label %28, label %27

27:                                               ; preds = %20
  store i32 2, ptr %17, align 4
  call void @llvm.lifetime.end.p0(i64 8, ptr %16) #17
  br label %83

28:                                               ; preds = %20
  call void @llvm.lifetime.start.p0(i64 8, ptr %18) #17
  %29 = load ptr, ptr %13, align 8
  %30 = load i64, ptr %16, align 8
  %31 = getelementptr %struct.enum_val_t, ptr %29, i64 %30
  %32 = getelementptr inbounds nuw %struct.enum_val_t, ptr %31, i32 0, i32 0
  %33 = load ptr, ptr %32, align 8
  store ptr %33, ptr %18, align 8
  br label %34

34:                                               ; preds = %76, %28
  %35 = load ptr, ptr %18, align 8
  %36 = load i8, ptr %35, align 1
  %37 = sext i8 %36 to i32
  %38 = icmp ne i32 %37, 0
  br i1 %38, label %40, label %39

39:                                               ; preds = %34
  store i32 5, ptr %17, align 4
  call void @llvm.lifetime.end.p0(i64 8, ptr %18) #17
  br label %79

40:                                               ; preds = %34
  %41 = load ptr, ptr @g_ascii_table, align 8
  %42 = load ptr, ptr %18, align 8
  %43 = load i8, ptr %42, align 1
  %44 = zext i8 %43 to i64
  %45 = getelementptr i16, ptr %41, i64 %44
  %46 = load i16, ptr %45, align 2
  %47 = zext i16 %46 to i32
  %48 = and i32 %47, 1
  %49 = icmp ne i32 %48, 0
  br i1 %49, label %75, label %50

50:                                               ; preds = %40
  %51 = load ptr, ptr %18, align 8
  %52 = load i8, ptr %51, align 1
  %53 = sext i8 %52 to i32
  %54 = icmp eq i32 %53, 95
  br i1 %54, label %75, label %55

55:                                               ; preds = %50
  %56 = load ptr, ptr %18, align 8
  %57 = load i8, ptr %56, align 1
  %58 = sext i8 %57 to i32
  %59 = icmp eq i32 %58, 46
  br i1 %59, label %75, label %60

60:                                               ; preds = %55
  %61 = load ptr, ptr %18, align 8
  %62 = load i8, ptr %61, align 1
  %63 = sext i8 %62 to i32
  %64 = icmp eq i32 %63, 45
  br i1 %64, label %75, label %65

65:                                               ; preds = %60
  %66 = load ptr, ptr %8, align 8
  %67 = getelementptr inbounds nuw %struct.pref_module, ptr %66, i32 0, i32 0
  %68 = load ptr, ptr %67, align 8
  %69 = load ptr, ptr %9, align 8
  %70 = load ptr, ptr %13, align 8
  %71 = load i64, ptr %16, align 8
  %72 = getelementptr %struct.enum_val_t, ptr %70, i64 %71
  %73 = getelementptr inbounds nuw %struct.enum_val_t, ptr %72, i32 0, i32 0
  %74 = load ptr, ptr %73, align 8
  call void (ptr, i32, ptr, i64, ptr, ptr, ...) @ws_log_fatal_full(ptr noundef @.str, i32 noundef 7, ptr noundef @.str.1, i64 noundef 1342, ptr noundef @__func__.prefs_register_enum_preference, ptr noundef @.str.9, ptr noundef %68, ptr noundef %69, ptr noundef %74) #18
  unreachable

75:                                               ; preds = %60, %55, %50, %40
  br label %76

76:                                               ; preds = %75
  %77 = load ptr, ptr %18, align 8
  %78 = getelementptr i8, ptr %77, i32 1
  store ptr %78, ptr %18, align 8
  br label %34, !llvm.loop !14

79:                                               ; preds = %39
  br label %80

80:                                               ; preds = %79
  %81 = load i64, ptr %16, align 8
  %82 = add i64 %81, 1
  store i64 %82, ptr %16, align 8
  br label %20, !llvm.loop !15

83:                                               ; preds = %27
  %84 = load ptr, ptr %8, align 8
  %85 = load ptr, ptr %9, align 8
  %86 = load ptr, ptr %10, align 8
  %87 = load ptr, ptr %11, align 8
  %88 = call ptr @register_preference(ptr noundef %84, ptr noundef %85, ptr noundef %86, ptr noundef %87, i32 noundef 4)
  store ptr %88, ptr %15, align 8
  %89 = load ptr, ptr %12, align 8
  %90 = load ptr, ptr %15, align 8
  %91 = getelementptr inbounds nuw %struct.preference, ptr %90, i32 0, i32 6
  store ptr %89, ptr %91, align 8
  %92 = load ptr, ptr %12, align 8
  %93 = load i32, ptr %92, align 4
  %94 = load ptr, ptr %15, align 8
  %95 = getelementptr inbounds nuw %struct.preference, ptr %94, i32 0, i32 8
  store i32 %93, ptr %95, align 8
  %96 = load ptr, ptr %13, align 8
  %97 = load ptr, ptr %15, align 8
  %98 = getelementptr inbounds nuw %struct.preference, ptr %97, i32 0, i32 9
  %99 = getelementptr inbounds nuw %struct.anon, ptr %98, i32 0, i32 0
  store ptr %96, ptr %99, align 8
  %100 = load i8, ptr %14, align 1, !range !6, !noundef !7
  %101 = trunc i8 %100 to i1
  %102 = load ptr, ptr %15, align 8
  %103 = getelementptr inbounds nuw %struct.preference, ptr %102, i32 0, i32 9
  %104 = getelementptr inbounds nuw %struct.anon, ptr %103, i32 0, i32 1
  %105 = zext i1 %101 to i8
  store i8 %105, ptr %104, align 8
  call void @llvm.lifetime.end.p0(i64 8, ptr %15) #17
  ret void
}