; Function Attrs: null_pointer_is_valid sspstrong uwtable
define void @prefs_register_enum_preference(ptr noundef captures(address_is_null) %0, ptr noundef %1, ptr noundef %2, ptr noundef %3, ptr noundef %4, ptr noundef %5, i1 noundef zeroext %6) local_unnamed_addr #1 {
  %8 = load ptr, ptr %5, align 8
  %.not37 = icmp eq ptr %8, null
  br i1 %.not37, label %._crit_edge39, label %.preheader.lr.ph

.preheader.lr.ph:                                 ; preds = %7
  %9 = load ptr, ptr @g_ascii_table, align 8
  br label %.preheader

.preheader:                                       ; preds = %.preheader.lr.ph, %._crit_edge
  %10 = phi ptr [ %8, %.preheader.lr.ph ], [ %21, %._crit_edge ]
  %.02638 = phi i64 [ 0, %.preheader.lr.ph ], [ %19, %._crit_edge ]
  %11 = load i8, ptr %10, align 1
  %.not2935 = icmp eq i8 %11, 0
  br i1 %.not2935, label %._crit_edge, label %.lr.ph

._crit_edge39:                                    ; preds = %._crit_edge, %7
  %12 = zext i1 %6 to i8
  %13 = tail call fastcc ptr @register_preference(ptr noundef %0, ptr noundef %1, ptr noundef %2, ptr noundef %3, i32 noundef 4)
  %14 = getelementptr inbounds nuw i8, ptr %13, i64 40
  store ptr %4, ptr %14, align 8
  %15 = load i32, ptr %4, align 4
  %16 = getelementptr inbounds nuw i8, ptr %13, i64 56
  store i32 %15, ptr %16, align 8
  %17 = getelementptr inbounds nuw i8, ptr %13, i64 64
  store ptr %5, ptr %17, align 8
  %18 = getelementptr inbounds nuw i8, ptr %13, i64 72
  store i8 %12, ptr %18, align 8
  ret void

._crit_edge:                                      ; preds = %29, %.preheader
  %19 = add i64 %.02638, 1
  %20 = getelementptr %struct.enum_val_t, ptr %5, i64 %19
  %21 = load ptr, ptr %20, align 8
  %.not = icmp eq ptr %21, null
  br i1 %.not, label %._crit_edge39, label %.preheader, !llvm.loop !12

.lr.ph:                                           ; preds = %.preheader, %29
  %22 = phi i8 [ %31, %29 ], [ %11, %.preheader ]
  %.036 = phi ptr [ %30, %29 ], [ %10, %.preheader ]
  %23 = zext i8 %22 to i64
  %24 = getelementptr i16, ptr %9, i64 %23
  %25 = load i16, ptr %24, align 2
  %.fr33 = freeze i16 %25
  %26 = and i16 %.fr33, 1
  %.not30.not = icmp eq i16 %26, 0
  br i1 %.not30.not, label %switch.early.test, label %29

switch.early.test:                                ; preds = %.lr.ph
  switch i8 %22, label %27 [
    i8 95, label %29
    i8 46, label %29
    i8 45, label %29
  ]

27:                                               ; preds = %switch.early.test
  %28 = load ptr, ptr %0, align 8
  tail call void (ptr, i32, ptr, i64, ptr, ptr, ...) @ws_log_fatal_full(ptr noundef nonnull @.str, i32 noundef 7, ptr noundef nonnull @.str.1, i64 noundef 1342, ptr noundef nonnull @__func__.prefs_register_enum_preference, ptr noundef nonnull @.str.9, ptr noundef %28, ptr noundef %1, ptr noundef nonnull %10) #26
  unreachable

29:                                               ; preds = %switch.early.test, %switch.early.test, %switch.early.test, %.lr.ph
  %30 = getelementptr i8, ptr %.036, i64 1
  %31 = load i8, ptr %30, align 1
  %.not29 = icmp eq i8 %31, 0
  br i1 %.not29, label %._crit_edge, label %.lr.ph, !llvm.loop !13
}